BL51 BANKED LINKER/LOCATER V6.22                                                        09/24/2021  21:10:16  PAGE 1


BL51 BANKED LINKER/LOCATER V6.22, INVOKED BY:
D:\KEIL_V5_2\C51\BIN\BL51.EXE .\Objects\STARTUP.obj, .\Objects\main.obj, .\Objects\project.obj TO .\Objects\Key PRINT (.
>> \Listings\Key.m51) RAMSIZE (256)


MEMORY MODEL: SMALL


INPUT MODULES INCLUDED:
  .\Objects\STARTUP.obj (?C_STARTUP)
  .\Objects\main.obj (MAIN)
  .\Objects\project.obj (PROJECT)


LINK MAP OF MODULE:  .\Objects\Key (?C_STARTUP)


            TYPE    BASE      LENGTH    RELOCATION   SEGMENT NAME
            -----------------------------------------------------

            * * * * * * *   D A T A   M E M O R Y   * * * * * * *
            REG     0000H     0008H     ABSOLUTE     "REG BANK 0"
            DATA    0008H     0002H     UNIT         _DATA_GROUP_
            IDATA   000AH     0001H     UNIT         ?STACK

            * * * * * * *   C O D E   M E M O R Y   * * * * * * *
            CODE    0000H     0003H     ABSOLUTE     
                    0003H     07FDH                  *** GAP ***
            CODE    0800H     002FH     UNIT         ?PR?MAIN?MAIN
            CODE    082FH     001AH     UNIT         ?PR?MAIN?PROJECT
            CODE    0849H     0014H     UNIT         ?PR?_DELAYMS?MAIN
            CODE    085DH     0014H     UNIT         ?PR?_DELAYMS?PROJECT
            CODE    0871H     000CH     UNIT         ?C_C51STARTUP



OVERLAY MAP OF MODULE:   .\Objects\Key (?C_STARTUP)


SEGMENT                          DATA_GROUP 
  +--> CALLED SEGMENT          START    LENGTH
----------------------------------------------
?C_C51STARTUP                  -----    -----
  +--> ?PR?MAIN?MAIN

?PR?MAIN?MAIN                  0008H    0002H
  +--> ?PR?_DELAYMS?MAIN



IGNORED SYMBOLS:
   MAIN
   _DELAYMS



SYMBOL TABLE OF MODULE:  .\Objects\Key (?C_STARTUP)

BL51 BANKED LINKER/LOCATER V6.22                                                      09/24/2021  21:10:16  PAGE 2


  VALUE           TYPE          NAME
  ----------------------------------

  -------         MODULE        ?C_STARTUP
  C:0871H         SEGMENT       ?C_C51STARTUP
  I:000AH         SEGMENT       ?STACK
  C:0000H         PUBLIC        ?C_STARTUP
  D:00E0H         SYMBOL        ACC
  D:00F0H         SYMBOL        B
  D:0083H         SYMBOL        DPH
  D:0082H         SYMBOL        DPL
  N:0000H         SYMBOL        IBPSTACK
  N:0100H         SYMBOL        IBPSTACKTOP
  N:0080H         SYMBOL        IDATALEN
  C:0874H         SYMBOL        IDATALOOP
  N:0000H         SYMBOL        PBPSTACK
  N:0100H         SYMBOL        PBPSTACKTOP
  N:0000H         SYMBOL        PDATALEN
  N:0000H         SYMBOL        PDATASTART
  N:0000H         SYMBOL        PPAGE
  N:0000H         SYMBOL        PPAGEENABLE
  D:00A0H         SYMBOL        PPAGE_SFR
  D:0081H         SYMBOL        SP
  C:0871H         SYMBOL        STARTUP1
  N:0000H         SYMBOL        XBPSTACK
  N:0000H         SYMBOL        XBPSTACKTOP
  N:0000H         SYMBOL        XDATALEN
  N:0000H         SYMBOL        XDATASTART
  C:0000H         LINE#         126
  C:0871H         LINE#         133
  C:0873H         LINE#         134
  C:0874H         LINE#         135
  C:0875H         LINE#         136
  C:0877H         LINE#         185
  C:087AH         LINE#         196
  -------         ENDMOD        ?C_STARTUP

  -------         MODULE        MAIN
  C:0000H         SYMBOL        _ICE_DUMMY_
  D:00A0H         PUBLIC        P2
  C:0800H         PUBLIC        main
  C:0849H         PUBLIC        _delayms
  -------         PROC          _DELAYMS
  D:0006H         SYMBOL        xms
  -------         DO            
  D:0005H         SYMBOL        i
  D:0004H         SYMBOL        j
  -------         ENDDO         
  C:0849H         LINE#         3
  C:0849H         LINE#         4
  C:0849H         LINE#         6
  C:084DH         LINE#         7
  C:084DH         LINE#         8
  C:084FH         LINE#         9
  C:0851H         LINE#         11
  C:0851H         LINE#         12
  C:0853H         LINE#         13
BL51 BANKED LINKER/LOCATER V6.22                                                      09/24/2021  21:10:16  PAGE 3


  C:0855H         LINE#         14
  C:085AH         LINE#         15
  C:085CH         LINE#         16
  -------         ENDPROC       _DELAYMS
  -------         PROC          MAIN
  -------         DO            
  D:0008H         SYMBOL        i
  -------         ENDDO         
  C:0800H         LINE#         18
  C:0800H         LINE#         19
  C:0800H         LINE#         20
  C:0800H         LINE#         22
  C:0805H         LINE#         23
  C:080CH         LINE#         24
  C:081CH         LINE#         25
  -------         ENDPROC       MAIN
  -------         ENDMOD        MAIN

  -------         MODULE        PROJECT
  C:0000H         SYMBOL        _ICE_DUMMY_
  B:00A0H.0       PUBLIC        P2_0
  B:00B0H.1       PUBLIC        P3_1
  C:082FH         PUBLIC        main
  C:085DH         PUBLIC        _delayms
  -------         PROC          _DELAYMS
  D:0006H         SYMBOL        xms
  -------         DO            
  D:0005H         SYMBOL        i
  D:0004H         SYMBOL        j
  -------         ENDDO         
  C:085DH         LINE#         3
  C:085DH         LINE#         4
  C:085DH         LINE#         6
  C:0861H         LINE#         7
  C:0861H         LINE#         8
  C:0863H         LINE#         9
  C:0865H         LINE#         11
  C:0865H         LINE#         12
  C:0867H         LINE#         13
  C:0869H         LINE#         14
  C:086EH         LINE#         15
  C:0870H         LINE#         16
  -------         ENDPROC       _DELAYMS
  -------         PROC          MAIN
  C:082FH         LINE#         18
  C:082FH         LINE#         19
  C:082FH         LINE#         20
  C:082FH         LINE#         21
  C:0832H         LINE#         22
  C:0839H         LINE#         23
  C:083CH         LINE#         24
  C:0843H         LINE#         25
  C:0845H         LINE#         26
  C:0847H         LINE#         27
  C:0847H         LINE#         28
  -------         ENDPROC       MAIN
  -------         ENDMOD        PROJECT
BL51 BANKED LINKER/LOCATER V6.22                                                      09/24/2021  21:10:16  PAGE 4



*** ERROR L104: MULTIPLE PUBLIC DEFINITIONS
    SYMBOL:  MAIN
    MODULE:  .\Objects\project.obj (PROJECT)

*** ERROR L104: MULTIPLE PUBLIC DEFINITIONS
    SYMBOL:  _DELAYMS
    MODULE:  .\Objects\project.obj (PROJECT)

*** WARNING L16: UNCALLED SEGMENT, IGNORED FOR OVERLAY PROCESS
    SEGMENT: ?PR?MAIN?PROJECT

******************************************************************************
* RESTRICTED VERSION WITH 0800H BYTE CODE SIZE LIMIT; USED: 0080H BYTE ( 6%) *
******************************************************************************

Program Size: data=11.0 xdata=0 code=128
LINK/LOCATE RUN COMPLETE.  1 WARNING(S),  2 ERROR(S)
